; ModuleID = '29/1360.c'
source_filename = "29/1360.c"
target datalayout = "e-m:e-p270:32:32-p271:32:32-p272:64:64-i64:64-f80:128-n8:16:32:64-S128"
target triple = "x86_64-pc-linux-gnu"

@.str = private unnamed_addr constant [3 x i8] c"%d\00", align 1
@.str.1 = private unnamed_addr constant [7 x i8] c"%.3lf\0A\00", align 1

; Function Attrs: noinline nounwind uwtable
define dso_local i32 @main() #0 {
  %1 = alloca i32, align 4
  %2 = alloca i32, align 4
  %3 = alloca [1000 x i32], align 16
  %4 = alloca i32, align 4
  %5 = alloca [1000 x double], align 16
  %6 = alloca i32, align 4
  %7 = alloca i32, align 4
  %8 = alloca i32, align 4
  store i32 0, i32* %1, align 4
  %9 = call i32 (i8*, ...) @__isoc99_scanf(i8* getelementptr inbounds ([3 x i8], [3 x i8]* @.str, i64 0, i64 0), i32* %2)
  store i32 2, i32* %4, align 4
  br label %10

10:                                               ; preds = %30, %0
  %11 = load i32, i32* %4, align 4
  %12 = icmp slt i32 %11, 1000
  br i1 %12, label %13, label %33

13:                                               ; preds = %10
  %14 = getelementptr inbounds [1000 x i32], [1000 x i32]* %3, i64 0, i64 0
  store i32 1, i32* %14, align 16
  %15 = getelementptr inbounds [1000 x i32], [1000 x i32]* %3, i64 0, i64 1
  store i32 1, i32* %15, align 4
  %16 = load i32, i32* %4, align 4
  %17 = sub nsw i32 %16, 1
  %18 = sext i32 %17 to i64
  %19 = getelementptr inbounds [1000 x i32], [1000 x i32]* %3, i64 0, i64 %18
  %20 = load i32, i32* %19, align 4
  %21 = load i32, i32* %4, align 4
  %22 = sub nsw i32 %21, 2
  %23 = sext i32 %22 to i64
  %24 = getelementptr inbounds [1000 x i32], [1000 x i32]* %3, i64 0, i64 %23
  %25 = load i32, i32* %24, align 4
  %26 = add nsw i32 %20, %25
  %27 = load i32, i32* %4, align 4
  %28 = sext i32 %27 to i64
  %29 = getelementptr inbounds [1000 x i32], [1000 x i32]* %3, i64 0, i64 %28
  store i32 %26, i32* %29, align 4
  br label %30

30:                                               ; preds = %13
  %31 = load i32, i32* %4, align 4
  %32 = add nsw i32 %31, 1
  store i32 %32, i32* %4, align 4
  br label %10

33:                                               ; preds = %10
  store i32 0, i32* %4, align 4
  br label %34

34:                                               ; preds = %41, %33
  %35 = load i32, i32* %4, align 4
  %36 = icmp slt i32 %35, 1000
  br i1 %36, label %37, label %44

37:                                               ; preds = %34
  %38 = load i32, i32* %4, align 4
  %39 = sext i32 %38 to i64
  %40 = getelementptr inbounds [1000 x double], [1000 x double]* %5, i64 0, i64 %39
  store double 0.000000e+00, double* %40, align 8
  br label %41

41:                                               ; preds = %37
  %42 = load i32, i32* %4, align 4
  %43 = add nsw i32 %42, 1
  store i32 %43, i32* %4, align 4
  br label %34

44:                                               ; preds = %34
  store i32 1, i32* %6, align 4
  br label %45

45:                                               ; preds = %79, %44
  %46 = load i32, i32* %6, align 4
  %47 = load i32, i32* %2, align 4
  %48 = icmp sle i32 %46, %47
  br i1 %48, label %49, label %82

49:                                               ; preds = %45
  %50 = call i32 (i8*, ...) @__isoc99_scanf(i8* getelementptr inbounds ([3 x i8], [3 x i8]* @.str, i64 0, i64 0), i32* %7)
  store i32 2, i32* %8, align 4
  br label %51

51:                                               ; preds = %75, %49
  %52 = load i32, i32* %8, align 4
  %53 = load i32, i32* %7, align 4
  %54 = add nsw i32 %53, 1
  %55 = icmp sle i32 %52, %54
  br i1 %55, label %56, label %78

56:                                               ; preds = %51
  %57 = load i32, i32* %8, align 4
  %58 = sext i32 %57 to i64
  %59 = getelementptr inbounds [1000 x i32], [1000 x i32]* %3, i64 0, i64 %58
  %60 = load i32, i32* %59, align 4
  %61 = sitofp i32 %60 to double
  %62 = fmul double 1.000000e+00, %61
  %63 = load i32, i32* %8, align 4
  %64 = sub nsw i32 %63, 1
  %65 = sext i32 %64 to i64
  %66 = getelementptr inbounds [1000 x i32], [1000 x i32]* %3, i64 0, i64 %65
  %67 = load i32, i32* %66, align 4
  %68 = sitofp i32 %67 to double
  %69 = fdiv double %62, %68
  %70 = load i32, i32* %6, align 4
  %71 = sext i32 %70 to i64
  %72 = getelementptr inbounds [1000 x double], [1000 x double]* %5, i64 0, i64 %71
  %73 = load double, double* %72, align 8
  %74 = fadd double %73, %69
  store double %74, double* %72, align 8
  br label %75

75:                                               ; preds = %56
  %76 = load i32, i32* %8, align 4
  %77 = add nsw i32 %76, 1
  store i32 %77, i32* %8, align 4
  br label %51

78:                                               ; preds = %51
  br label %79

79:                                               ; preds = %78
  %80 = load i32, i32* %6, align 4
  %81 = add nsw i32 %80, 1
  store i32 %81, i32* %6, align 4
  br label %45

82:                                               ; preds = %45
  store i32 1, i32* %6, align 4
  br label %83

83:                                               ; preds = %93, %82
  %84 = load i32, i32* %6, align 4
  %85 = load i32, i32* %2, align 4
  %86 = icmp sle i32 %84, %85
  br i1 %86, label %87, label %96

87:                                               ; preds = %83
  %88 = load i32, i32* %6, align 4
  %89 = sext i32 %88 to i64
  %90 = getelementptr inbounds [1000 x double], [1000 x double]* %5, i64 0, i64 %89
  %91 = load double, double* %90, align 8
  %92 = call i32 (i8*, ...) @printf(i8* getelementptr inbounds ([7 x i8], [7 x i8]* @.str.1, i64 0, i64 0), double %91)
  br label %93

93:                                               ; preds = %87
  %94 = load i32, i32* %6, align 4
  %95 = add nsw i32 %94, 1
  store i32 %95, i32* %6, align 4
  br label %83

96:                                               ; preds = %83
  ret i32 0
}

declare dso_local i32 @__isoc99_scanf(i8*, ...) #1

declare dso_local i32 @printf(i8*, ...) #1


!llvm.module.flags = !{!0}
!llvm.ident = !{!1}

!0 = !{i32 1, !"wchar_size", i32 4}
!1 = !{!"clang version 10.0.0-4ubuntu1 "}
